target datalayout = "e-m:e-p270:32:32-p271:32:32-p272:64:64-i64:64-i128:128-f80:128-n8:16:32:64-S128"
target triple = "x86_64-pc-linux-gnu"

%struct.RBasic = type { i64, i64 }
%struct.dump_arg = type { i64, i64, ptr, ptr, ptr, ptr, i64 }

@rb_eRuntimeError = external global i64, align 8
@.str.28 = private unnamed_addr constant [29 x i8] c"Marshal.dump reentered at %s\00", align 1
@.str.47 = private unnamed_addr constant [37 x i8] c"%li\0B#%s returned same class instance\00", align 1
@rb_cFalseClass = external global i64, align 8
@rb_cNilClass = external global i64, align 8
@rb_cTrueClass = external global i64, align 8
@rb_cInteger = external global i64, align 8
@rb_cSymbol = external global i64, align 8
@rb_cFloat = external global i64, align 8

; Function Attrs: inlinehint nounwind sspstrong willreturn memory(none) uwtable
define internal zeroext i1 @RB_IMMEDIATE_P(i64 noundef %0) #8 {
  %2 = alloca i64, align 8
  store i64 %0, ptr %2, align 8, !tbaa !7
  %3 = load i64, ptr %2, align 8, !tbaa !7
  %4 = and i64 %3, 7
  %5 = icmp ne i64 %4, 0
  ret i1 %5
}

; Function Attrs: inlinehint nounwind sspstrong willreturn memory(none) uwtable
define internal zeroext i1 @RB_FLONUM_P(i64 noundef %0) #8 {
  %2 = alloca i64, align 8
  store i64 %0, ptr %2, align 8, !tbaa !7
  %3 = load i64, ptr %2, align 8, !tbaa !7
  %4 = and i64 %3, 3
  %5 = icmp eq i64 %4, 2
  ret i1 %5
}

; Function Attrs: inlinehint nounwind sspstrong willreturn memory(none) uwtable
define internal zeroext i1 @RB_STATIC_SYM_P(i64 noundef %0) #8 {
  %2 = alloca i64, align 8
  %3 = alloca i64, align 8
  store i64 %0, ptr %2, align 8, !tbaa !7
  call void @llvm.lifetime.start.p0(i64 8, ptr %3) #23
  store i64 255, ptr %3, align 8, !tbaa !7
  %4 = load i64, ptr %2, align 8, !tbaa !7
  %5 = and i64 %4, 255
  %6 = icmp eq i64 %5, 12
  call void @llvm.lifetime.end.p0(i64 8, ptr %3) #23
  ret i1 %6
}

; Function Attrs: inlinehint nounwind sspstrong willreturn memory(none) uwtable
define internal zeroext i1 @RB_FIXNUM_P(i64 noundef %0) #8 {
  %2 = alloca i64, align 8
  store i64 %0, ptr %2, align 8, !tbaa !7
  %3 = load i64, ptr %2, align 8, !tbaa !7
  %4 = and i64 %3, 1
  %5 = icmp ne i64 %4, 0
  ret i1 %5
}

; Function Attrs: inlinehint nounwind sspstrong willreturn memory(read) uwtable
define internal i64 @RBASIC_CLASS(i64 noundef %0) #7 {
  %2 = alloca i64, align 8
  store i64 %0, ptr %2, align 8, !tbaa !7
  %3 = load i64, ptr %2, align 8, !tbaa !7
  %4 = inttoptr i64 %3 to ptr
  %5 = getelementptr inbounds nuw %struct.RBasic, ptr %4, i32 0, i32 1
  %6 = load i64, ptr %5, align 8, !tbaa !82
  ret i64 %6
}

; Function Attrs: inlinehint nounwind sspstrong willreturn memory(none) uwtable
define internal zeroext i1 @RB_SPECIAL_CONST_P(i64 noundef %0) #8 {
  %2 = alloca i64, align 8
  store i64 %0, ptr %2, align 8, !tbaa !7
  %3 = load i64, ptr %2, align 8, !tbaa !7
  %4 = icmp eq i64 %3, 0
  br i1 %4, label %8, label %5

5:                                                ; preds = %1
  %6 = load i64, ptr %2, align 8, !tbaa !7
  %7 = call zeroext i1 @RB_IMMEDIATE_P(i64 noundef %6) #26
  br label %8

8:                                                ; preds = %5, %1
  %9 = phi i1 [ true, %1 ], [ %7, %5 ]
  ret i1 %9
}

; Function Attrs: nounwind sspstrong uwtable
define internal i64 @check_dump_arg(i64 noundef %0, ptr noundef %1, ptr noundef %2) #0 {
  %4 = alloca i64, align 8
  %5 = alloca ptr, align 8
  %6 = alloca ptr, align 8
  store i64 %0, ptr %4, align 8, !tbaa !7
  store ptr %1, ptr %5, align 8, !tbaa !39
  store ptr %2, ptr %6, align 8, !tbaa !20
  %7 = load ptr, ptr %5, align 8, !tbaa !39
  %8 = getelementptr inbounds nuw %struct.dump_arg, ptr %7, i32 0, i32 2
  %9 = load ptr, ptr %8, align 8, !tbaa !43
  %10 = icmp ne ptr %9, null
  br i1 %10, label %14, label %11

11:                                               ; preds = %3
  %12 = load i64, ptr @rb_eRuntimeError, align 8, !tbaa !7
  %13 = load ptr, ptr %6, align 8, !tbaa !20
  call void (i64, ptr, ...) @rb_raise(i64 noundef %12, ptr noundef @.str.28, ptr noundef %13) #24
  unreachable

14:                                               ; preds = %3
  %15 = load i64, ptr %4, align 8, !tbaa !7
  ret i64 %15
}

; Function Attrs: inlinehint nounwind sspstrong willreturn memory(read) uwtable
define internal i64 @rb_class_of(i64 noundef %0) #7 {
  %2 = alloca i64, align 8
  %3 = alloca i64, align 8
  store i64 %0, ptr %3, align 8, !tbaa !7
  %4 = load i64, ptr %3, align 8, !tbaa !7
  %5 = call zeroext i1 @RB_SPECIAL_CONST_P(i64 noundef %4) #26
  br i1 %5, label %9, label %6

6:                                                ; preds = %1
  %7 = load i64, ptr %3, align 8, !tbaa !7
  %8 = call i64 @RBASIC_CLASS(i64 noundef %7) #27
  store i64 %8, ptr %2, align 8
  br label %46

9:                                                ; preds = %1
  %10 = load i64, ptr %3, align 8, !tbaa !7
  %11 = icmp eq i64 %10, 0
  br i1 %11, label %12, label %14

12:                                               ; preds = %9
  %13 = load i64, ptr @rb_cFalseClass, align 8, !tbaa !7
  store i64 %13, ptr %2, align 8
  br label %46

14:                                               ; preds = %9
  %15 = load i64, ptr %3, align 8, !tbaa !7
  %16 = icmp eq i64 %15, 4
  br i1 %16, label %17, label %19

17:                                               ; preds = %14
  %18 = load i64, ptr @rb_cNilClass, align 8, !tbaa !7
  store i64 %18, ptr %2, align 8
  br label %46

19:                                               ; preds = %14
  %20 = load i64, ptr %3, align 8, !tbaa !7
  %21 = icmp eq i64 %20, 20
  br i1 %21, label %22, label %24

22:                                               ; preds = %19
  %23 = load i64, ptr @rb_cTrueClass, align 8, !tbaa !7
  store i64 %23, ptr %2, align 8
  br label %46

24:                                               ; preds = %19
  %25 = load i64, ptr %3, align 8, !tbaa !7
  %26 = call zeroext i1 @RB_FIXNUM_P(i64 noundef %25) #26
  br i1 %26, label %27, label %29

27:                                               ; preds = %24
  %28 = load i64, ptr @rb_cInteger, align 8, !tbaa !7
  store i64 %28, ptr %2, align 8
  br label %46

29:                                               ; preds = %24
  %30 = load i64, ptr %3, align 8, !tbaa !7
  %31 = call zeroext i1 @RB_STATIC_SYM_P(i64 noundef %30) #26
  br i1 %31, label %32, label %34

32:                                               ; preds = %29
  %33 = load i64, ptr @rb_cSymbol, align 8, !tbaa !7
  store i64 %33, ptr %2, align 8
  br label %46

34:                                               ; preds = %29
  %35 = load i64, ptr %3, align 8, !tbaa !7
  %36 = call zeroext i1 @RB_FLONUM_P(i64 noundef %35) #26
  br i1 %36, label %37, label %39

37:                                               ; preds = %34
  %38 = load i64, ptr @rb_cFloat, align 8, !tbaa !7
  store i64 %38, ptr %2, align 8
  br label %46

39:                                               ; preds = %34
  br label %40

40:                                               ; preds = %39
  br label %41

41:                                               ; preds = %40
  br label %42

42:                                               ; preds = %41
  br label %43

43:                                               ; preds = %42
  br label %44

44:                                               ; preds = %43
  br label %45

45:                                               ; preds = %44
  unreachable

46:                                               ; preds = %37, %32, %27, %22, %17, %12, %6
  %47 = load i64, ptr %2, align 8
  ret i64 %47
}

; Function Attrs: nounwind sspstrong uwtable
define internal i64 @check_userdump_arg(i64 noundef %0, i64 noundef %1, i32 noundef %2, ptr noundef %3, ptr noundef %4, ptr noundef %5) #0 {
  %7 = alloca i64, align 8
  %8 = alloca i64, align 8
  %9 = alloca i32, align 4
  %10 = alloca ptr, align 8
  %11 = alloca ptr, align 8
  %12 = alloca ptr, align 8
  %13 = alloca i64, align 8
  %14 = alloca i64, align 8
  store i64 %0, ptr %7, align 8, !tbaa !7
  store i64 %1, ptr %8, align 8, !tbaa !7
  store i32 %2, ptr %9, align 4, !tbaa !22
  store ptr %3, ptr %10, align 8, !tbaa !18
  store ptr %4, ptr %11, align 8, !tbaa !39
  store ptr %5, ptr %12, align 8, !tbaa !20
  call void @llvm.lifetime.start.p0(i64 8, ptr %13) #23
  %15 = load i64, ptr %7, align 8, !tbaa !7
  %16 = load i64, ptr %8, align 8, !tbaa !7
  %17 = load i32, ptr %9, align 4, !tbaa !22
  %18 = load ptr, ptr %10, align 8, !tbaa !18
  %19 = call i64 @rb_funcallv(i64 noundef %15, i64 noundef %16, i32 noundef %17, ptr noundef %18)
  store i64 %19, ptr %13, align 8, !tbaa !7
  call void @llvm.lifetime.start.p0(i64 8, ptr %14) #23
  %20 = load i64, ptr %7, align 8, !tbaa !7
  %21 = call i64 @rb_class_of(i64 noundef %20) #27
  store i64 %21, ptr %14, align 8, !tbaa !7
  %22 = load i64, ptr %13, align 8, !tbaa !7
  %23 = call i64 @rb_class_of(i64 noundef %22) #27
  %24 = load i64, ptr %14, align 8, !tbaa !7
  %25 = icmp eq i64 %23, %24
  br i1 %25, label %26, label %30

26:                                               ; preds = %6
  %27 = load i64, ptr @rb_eRuntimeError, align 8, !tbaa !7
  %28 = load i64, ptr %14, align 8, !tbaa !7
  %29 = load ptr, ptr %12, align 8, !tbaa !20
  call void (i64, ptr, ...) @rb_raise(i64 noundef %27, ptr noundef @.str.47, i64 noundef %28, ptr noundef %29) #24
  unreachable

30:                                               ; preds = %6
  %31 = load i64, ptr %13, align 8, !tbaa !7
  %32 = load ptr, ptr %11, align 8, !tbaa !39
  %33 = load ptr, ptr %12, align 8, !tbaa !20
  %34 = call i64 @check_dump_arg(i64 noundef %31, ptr noundef %32, ptr noundef %33)
  call void @llvm.lifetime.end.p0(i64 8, ptr %14) #23
  call void @llvm.lifetime.end.p0(i64 8, ptr %13) #23
  ret i64 %34
}