; Function Attrs: nounwind sspstrong uwtable
define internal fastcc i64 @check_userdump_arg(i64 noundef %0, i64 noundef %1, i32 noundef range(i32 0, 2) %2, ptr noundef %3, ptr noundef readonly captures(none) %4, ptr noundef %5) unnamed_addr #0 {
  %7 = tail call i64 @rb_funcallv(i64 noundef %0, i64 noundef %1, i32 noundef %2, ptr noundef %3) #22
  %8 = icmp eq i64 %0, 0
  %9 = and i64 %0, 7
  %10 = icmp ne i64 %9, 0
  %11 = or i1 %8, %10
  br i1 %11, label %15, label %12

12:                                               ; preds = %6
  %13 = inttoptr i64 %0 to ptr
  %14 = getelementptr inbounds nuw i8, ptr %13, i64 8
  br label %rb_class_of.exit

15:                                               ; preds = %6
  switch i64 %0, label %18 [
    i64 0, label %rb_class_of.exit
    i64 4, label %16
    i64 20, label %17
  ]

16:                                               ; preds = %15
  br label %rb_class_of.exit

17:                                               ; preds = %15
  br label %rb_class_of.exit

18:                                               ; preds = %15
  %19 = and i64 %0, 1
  %.not.i = icmp eq i64 %19, 0
  br i1 %.not.i, label %20, label %rb_class_of.exit

20:                                               ; preds = %18
  %21 = and i64 %0, 254
  %22 = icmp eq i64 %21, 12
  %spec.select.i = select i1 %22, ptr @rb_cSymbol, ptr @rb_cFloat
  br label %rb_class_of.exit

rb_class_of.exit:                                 ; preds = %12, %15, %16, %17, %18, %20
  %.0.in.i = phi ptr [ @rb_cNilClass, %16 ], [ @rb_cTrueClass, %17 ], [ %14, %12 ], [ @rb_cFalseClass, %15 ], [ @rb_cInteger, %18 ], [ %spec.select.i, %20 ]
  %.0.i = load i64, ptr %.0.in.i, align 8, !tbaa !7
  %23 = icmp eq i64 %7, 0
  %24 = and i64 %7, 7
  %25 = icmp ne i64 %24, 0
  %26 = or i1 %23, %25
  br i1 %26, label %30, label %27

27:                                               ; preds = %rb_class_of.exit
  %28 = inttoptr i64 %7 to ptr
  %29 = getelementptr inbounds nuw i8, ptr %28, i64 8
  br label %rb_class_of.exit15

30:                                               ; preds = %rb_class_of.exit
  switch i64 %7, label %33 [
    i64 0, label %rb_class_of.exit15
    i64 4, label %31
    i64 20, label %32
  ]

31:                                               ; preds = %30
  br label %rb_class_of.exit15

32:                                               ; preds = %30
  br label %rb_class_of.exit15

33:                                               ; preds = %30
  %34 = and i64 %7, 1
  %.not.i13 = icmp eq i64 %34, 0
  br i1 %.not.i13, label %35, label %rb_class_of.exit15

35:                                               ; preds = %33
  %36 = and i64 %7, 254
  %37 = icmp eq i64 %36, 12
  %spec.select.i14 = select i1 %37, ptr @rb_cSymbol, ptr @rb_cFloat
  br label %rb_class_of.exit15

rb_class_of.exit15:                               ; preds = %27, %30, %31, %32, %33, %35
  %.0.in.i11 = phi ptr [ @rb_cNilClass, %31 ], [ @rb_cTrueClass, %32 ], [ %29, %27 ], [ @rb_cFalseClass, %30 ], [ @rb_cInteger, %33 ], [ %spec.select.i14, %35 ]
  %.0.i12 = load i64, ptr %.0.in.i11, align 8, !tbaa !7
  %38 = icmp eq i64 %.0.i12, %.0.i
  br i1 %38, label %39, label %41

39:                                               ; preds = %rb_class_of.exit15
  %40 = load i64, ptr @rb_eRuntimeError, align 8, !tbaa !7
  tail call void (i64, ptr, ...) @rb_raise(i64 noundef %40, ptr noundef nonnull @.str.47, i64 noundef %.0.i, ptr noundef %5) #23
  unreachable

41:                                               ; preds = %rb_class_of.exit15
  %42 = getelementptr i8, ptr %4, i64 16
  %.val = load ptr, ptr %42, align 8, !tbaa !38
  %.not.i16 = icmp eq ptr %.val, null
  br i1 %.not.i16, label %43, label %check_dump_arg.exit

43:                                               ; preds = %41
  %44 = load i64, ptr @rb_eRuntimeError, align 8, !tbaa !7
  tail call void (i64, ptr, ...) @rb_raise(i64 noundef %44, ptr noundef nonnull @.str.28, ptr noundef %5) #23
  unreachable

check_dump_arg.exit:                              ; preds = %41
  ret i64 %7
}